; Function Attrs: nounwind uwtable
define dso_local range(i64 -2147483648, 2147483648) i64 @int4mi(ptr noundef readonly captures(none) %0) local_unnamed_addr #0 {
  %2 = getelementptr inbounds nuw i8, ptr %0, i64 32
  %3 = load i64, ptr %2, align 8
  %4 = trunc i64 %3 to i32
  %5 = getelementptr inbounds nuw i8, ptr %0, i64 48
  %6 = load i64, ptr %5, align 8
  %7 = trunc i64 %6 to i32
  %8 = tail call { i32, i1 } @llvm.ssub.with.overflow.i32(i32 %4, i32 %7)
  %9 = extractvalue { i32, i1 } %8, 1
  br i1 %9, label %10, label %14, !prof !14

10:                                               ; preds = %1
  %11 = tail call zeroext i1 @errstart_cold(i32 noundef 21, ptr noundef null) #15
  tail call void @llvm.assume(i1 %11)
  %12 = tail call i32 @errcode(i32 noundef 50331778) #13
  %13 = tail call i32 (ptr, ...) @errmsg(ptr noundef nonnull @.str.7) #13
  tail call void @errfinish(ptr noundef nonnull @.str.2, i32 noundef 814, ptr noundef nonnull @__func__.int4mi) #13
  unreachable

14:                                               ; preds = %1
  %15 = extractvalue { i32, i1 } %8, 0
  %16 = sext i32 %15 to i64
  ret i64 %16
}